target datalayout = "e-m:e-p270:32:32-p271:32:32-p272:64:64-i64:64-i128:128-f80:128-n8:16:32:64-S128"
target triple = "x86_64-pc-linux-gnu"

%struct._zend_refcounted = type { %struct._zend_refcounted_h }
%struct._zend_refcounted_h = type { i32, %union.anon }
%union.anon = type { i32 }

; Function Attrs: nounwind uwtable
define void @rc_dtor_func(ptr noundef %0) #0 {
  %2 = alloca i32, align 4
  %3 = alloca ptr, align 8
  store ptr %0, ptr %3, align 8
  %4 = load ptr, ptr %3, align 8
  %5 = getelementptr inbounds %struct._zend_refcounted, ptr %4, i32 0, i32 0
  %6 = getelementptr inbounds %struct._zend_refcounted_h, ptr %5, i32 0, i32 1
  %7 = load i32, ptr %6, align 4
  store i32 %7, ptr %2, align 4
  %8 = load i32, ptr %2, align 4
  %9 = and i32 %8, 15
  %10 = trunc i32 %9 to i8
  %11 = zext i8 %10 to i64
  %12 = getelementptr inbounds [12 x ptr], ptr @zend_rc_dtor_func, i64 0, i64 %11
  %13 = load ptr, ptr %12, align 8
  %14 = load ptr, ptr %3, align 8
  call void %13(ptr noundef %14)
  ret void
}