; Function Attrs: nounwind uwtable
define void @rc_dtor_func(ptr noundef %0) local_unnamed_addr #0 {
  %2 = getelementptr inbounds i8, ptr %0, i64 4
  %3 = load i32, ptr %2, align 4
  %4 = and i32 %3, 15
  %5 = zext nneg i32 %4 to i64
  %6 = getelementptr inbounds [12 x ptr], ptr @zend_rc_dtor_func, i64 0, i64 %5
  %7 = load ptr, ptr %6, align 8
  tail call void %7(ptr noundef %0) #9
  ret void
}